target datalayout = "e-m:e-p270:32:32-p271:32:32-p272:64:64-i64:64-i128:128-f80:128-n8:16:32:64-S128"
target triple = "x86_64-unknown-linux-gnu"

%struct.Token = type { i32, ptr, i64, x86_fp80, ptr, i32, ptr, ptr, ptr, ptr, i32, i32, i8, i8, ptr, ptr }
%struct.Type = type { i32, i32, i32, i8, i8, ptr, ptr, ptr, ptr, i32, ptr, ptr, ptr, i8, i8, ptr, ptr, i8, ptr }
%struct.Member = type { ptr, ptr, ptr, ptr, i32, i32, i32, i8, i32, i32 }

@.str.67 = private unnamed_addr constant [2 x i8] c".\00", align 1
@.str.77 = private unnamed_addr constant [28 x i8] c"expected a field designator\00", align 1
@.str.78 = private unnamed_addr constant [26 x i8] c"struct has no such member\00", align 1

; Function Attrs: nounwind uwtable
define internal ptr @struct_designator(ptr noundef %rest, ptr noundef %tok, ptr noundef %ty) #0 {
entry:
  %retval = alloca ptr, align 8
  %rest.addr = alloca ptr, align 8
  %tok.addr = alloca ptr, align 8
  %ty.addr = alloca ptr, align 8
  %start = alloca ptr, align 8
  %mem = alloca ptr, align 8
  store ptr %rest, ptr %rest.addr, align 8
  store ptr %tok, ptr %tok.addr, align 8
  store ptr %ty, ptr %ty.addr, align 8
  %0 = load ptr, ptr %tok.addr, align 8
  store ptr %0, ptr %start, align 8
  %1 = load ptr, ptr %tok.addr, align 8
  %call = call ptr @skip(ptr noundef %1, ptr noundef @.str.67)
  store ptr %call, ptr %tok.addr, align 8
  %2 = load ptr, ptr %tok.addr, align 8
  %kind = getelementptr inbounds %struct.Token, ptr %2, i32 0, i32 0
  %3 = load i32, ptr %kind, align 16
  %cmp = icmp ne i32 %3, 0
  br i1 %cmp, label %if.then, label %if.end

if.then:                                          ; preds = %entry
  %4 = load ptr, ptr %tok.addr, align 8
  call void (ptr, ptr, ...) @error_tok(ptr noundef %4, ptr noundef @.str.77) #9
  unreachable

if.end:                                           ; preds = %entry
  %5 = load ptr, ptr %ty.addr, align 8
  %members = getelementptr inbounds %struct.Type, ptr %5, i32 0, i32 12
  %6 = load ptr, ptr %members, align 8
  store ptr %6, ptr %mem, align 8
  br label %for.cond

for.cond:                                         ; preds = %for.inc, %if.end
  %7 = load ptr, ptr %mem, align 8
  %tobool = icmp ne ptr %7, null
  br i1 %tobool, label %for.body, label %for.end

for.body:                                         ; preds = %for.cond
  %8 = load ptr, ptr %mem, align 8
  %ty1 = getelementptr inbounds %struct.Member, ptr %8, i32 0, i32 1
  %9 = load ptr, ptr %ty1, align 8
  %kind2 = getelementptr inbounds %struct.Type, ptr %9, i32 0, i32 0
  %10 = load i32, ptr %kind2, align 8
  %cmp3 = icmp eq i32 %10, 14
  br i1 %cmp3, label %land.lhs.true, label %if.end11

land.lhs.true:                                    ; preds = %for.body
  %11 = load ptr, ptr %mem, align 8
  %name = getelementptr inbounds %struct.Member, ptr %11, i32 0, i32 3
  %12 = load ptr, ptr %name, align 8
  %tobool4 = icmp ne ptr %12, null
  br i1 %tobool4, label %if.end11, label %if.then5

if.then5:                                         ; preds = %land.lhs.true
  %13 = load ptr, ptr %mem, align 8
  %ty6 = getelementptr inbounds %struct.Member, ptr %13, i32 0, i32 1
  %14 = load ptr, ptr %ty6, align 8
  %15 = load ptr, ptr %tok.addr, align 8
  %call7 = call ptr @get_struct_member(ptr noundef %14, ptr noundef %15)
  %tobool8 = icmp ne ptr %call7, null
  br i1 %tobool8, label %if.then9, label %if.end10

if.then9:                                         ; preds = %if.then5
  %16 = load ptr, ptr %start, align 8
  %17 = load ptr, ptr %rest.addr, align 8
  store ptr %16, ptr %17, align 8
  %18 = load ptr, ptr %mem, align 8
  store ptr %18, ptr %retval, align 8
  br label %return

if.end10:                                         ; preds = %if.then5
  br label %for.inc

if.end11:                                         ; preds = %land.lhs.true, %for.body
  %19 = load ptr, ptr %mem, align 8
  %name12 = getelementptr inbounds %struct.Member, ptr %19, i32 0, i32 3
  %20 = load ptr, ptr %name12, align 8
  %len = getelementptr inbounds %struct.Token, ptr %20, i32 0, i32 5
  %21 = load i32, ptr %len, align 8
  %22 = load ptr, ptr %tok.addr, align 8
  %len13 = getelementptr inbounds %struct.Token, ptr %22, i32 0, i32 5
  %23 = load i32, ptr %len13, align 8
  %cmp14 = icmp eq i32 %21, %23
  br i1 %cmp14, label %land.lhs.true15, label %if.end22

land.lhs.true15:                                  ; preds = %if.end11
  %24 = load ptr, ptr %mem, align 8
  %name16 = getelementptr inbounds %struct.Member, ptr %24, i32 0, i32 3
  %25 = load ptr, ptr %name16, align 8
  %loc = getelementptr inbounds %struct.Token, ptr %25, i32 0, i32 4
  %26 = load ptr, ptr %loc, align 16
  %27 = load ptr, ptr %tok.addr, align 8
  %loc17 = getelementptr inbounds %struct.Token, ptr %27, i32 0, i32 4
  %28 = load ptr, ptr %loc17, align 16
  %29 = load ptr, ptr %tok.addr, align 8
  %len18 = getelementptr inbounds %struct.Token, ptr %29, i32 0, i32 5
  %30 = load i32, ptr %len18, align 8
  %conv = sext i32 %30 to i64
  %call19 = call i32 @strncmp(ptr noundef %26, ptr noundef %28, i64 noundef %conv) #10
  %tobool20 = icmp ne i32 %call19, 0
  br i1 %tobool20, label %if.end22, label %if.then21

if.then21:                                        ; preds = %land.lhs.true15
  %31 = load ptr, ptr %tok.addr, align 8
  %next = getelementptr inbounds %struct.Token, ptr %31, i32 0, i32 1
  %32 = load ptr, ptr %next, align 8
  %33 = load ptr, ptr %rest.addr, align 8
  store ptr %32, ptr %33, align 8
  %34 = load ptr, ptr %mem, align 8
  store ptr %34, ptr %retval, align 8
  br label %return

if.end22:                                         ; preds = %land.lhs.true15, %if.end11
  br label %for.inc

for.inc:                                          ; preds = %if.end22, %if.end10
  %35 = load ptr, ptr %mem, align 8
  %next23 = getelementptr inbounds %struct.Member, ptr %35, i32 0, i32 0
  %36 = load ptr, ptr %next23, align 8
  store ptr %36, ptr %mem, align 8
  br label %for.cond, !llvm.loop !45

for.end:                                          ; preds = %for.cond
  %37 = load ptr, ptr %tok.addr, align 8
  call void (ptr, ptr, ...) @error_tok(ptr noundef %37, ptr noundef @.str.78) #9
  unreachable

return:                                           ; preds = %if.then21, %if.then9
  %38 = load ptr, ptr %retval, align 8
  ret ptr %38
}