; Function Attrs: nounwind uwtable
define internal fastcc ptr @struct_designator(ptr nocapture noundef writeonly %rest, ptr noundef %tok, ptr nocapture noundef readonly %ty) unnamed_addr #0 {
entry:
  %call = tail call ptr @skip(ptr noundef %tok, ptr noundef nonnull @.str.67) #13
  %0 = load i32, ptr %call, align 16
  %cmp.not = icmp eq i32 %0, 0
  br i1 %cmp.not, label %if.end, label %if.then

if.then:                                          ; preds = %entry
  tail call void (ptr, ptr, ...) @error_tok(ptr noundef nonnull %call, ptr noundef nonnull @.str.77) #16
  unreachable

if.end:                                           ; preds = %entry
  %members = getelementptr inbounds %struct.Type, ptr %ty, i64 0, i32 12
  %mem.022 = load ptr, ptr %members, align 8
  %tobool.not23 = icmp eq ptr %mem.022, null
  br i1 %tobool.not23, label %for.end, label %for.body.lr.ph

for.body.lr.ph:                                   ; preds = %if.end
  %len13 = getelementptr inbounds %struct.Token, ptr %call, i64 0, i32 5
  %loc17 = getelementptr inbounds %struct.Token, ptr %call, i64 0, i32 4
  br label %for.body

for.body:                                         ; preds = %for.body.lr.ph, %for.inc
  %mem.024 = phi ptr [ %mem.022, %for.body.lr.ph ], [ %mem.0, %for.inc ]
  %ty1 = getelementptr inbounds %struct.Member, ptr %mem.024, i64 0, i32 1
  %1 = load ptr, ptr %ty1, align 8
  %2 = load i32, ptr %1, align 8
  %cmp3 = icmp eq i32 %2, 14
  %name = getelementptr inbounds %struct.Member, ptr %mem.024, i64 0, i32 3
  %3 = load ptr, ptr %name, align 8
  %tobool4.not = icmp eq ptr %3, null
  %or.cond = select i1 %cmp3, i1 %tobool4.not, i1 false
  br i1 %or.cond, label %if.then5, label %if.end11

if.then5:                                         ; preds = %for.body
  %call7 = tail call fastcc ptr @get_struct_member(ptr noundef nonnull %1, ptr noundef nonnull %call)
  %tobool8.not = icmp eq ptr %call7, null
  br i1 %tobool8.not, label %for.inc, label %return

if.end11:                                         ; preds = %for.body
  %len = getelementptr inbounds %struct.Token, ptr %3, i64 0, i32 5
  %4 = load i32, ptr %len, align 8
  %5 = load i32, ptr %len13, align 8
  %cmp14 = icmp eq i32 %4, %5
  br i1 %cmp14, label %land.lhs.true15, label %for.inc

land.lhs.true15:                                  ; preds = %if.end11
  %loc = getelementptr inbounds %struct.Token, ptr %3, i64 0, i32 4
  %6 = load ptr, ptr %loc, align 16
  %7 = load ptr, ptr %loc17, align 16
  %conv = sext i32 %4 to i64
  %call19 = tail call i32 @strncmp(ptr noundef %6, ptr noundef %7, i64 noundef %conv) #15
  %tobool20.not = icmp eq i32 %call19, 0
  br i1 %tobool20.not, label %if.then21, label %for.inc

if.then21:                                        ; preds = %land.lhs.true15
  %next = getelementptr inbounds %struct.Token, ptr %call, i64 0, i32 1
  %8 = load ptr, ptr %next, align 8
  br label %return

for.inc:                                          ; preds = %if.end11, %land.lhs.true15, %if.then5
  %mem.0 = load ptr, ptr %mem.024, align 8
  %tobool.not = icmp eq ptr %mem.0, null
  br i1 %tobool.not, label %for.end, label %for.body, !llvm.loop !49

for.end:                                          ; preds = %for.inc, %if.end
  tail call void (ptr, ptr, ...) @error_tok(ptr noundef nonnull %call, ptr noundef nonnull @.str.78) #16
  unreachable

return:                                           ; preds = %if.then5, %if.then21
  %storemerge = phi ptr [ %8, %if.then21 ], [ %tok, %if.then5 ]
  store ptr %storemerge, ptr %rest, align 8
  ret ptr %mem.024
}